target datalayout = "e-m:e-p270:32:32-p271:32:32-p272:64:64-i64:64-i128:128-f80:128-n8:16:32:64-S128"
target triple = "x86_64-pc-linux-gnu"

%struct.lua_TValue = type { %union.Value, i32 }
%union.Value = type { ptr }
%struct.Table = type { ptr, i8, i8, i8, i32, i8, ptr, ptr, ptr, ptr, ptr, i32 }
%struct.lua_State = type { ptr, i8, i8, i8, ptr, ptr, ptr, ptr, ptr, ptr, ptr, ptr, ptr, i32, i32, i16, i16, i8, i8, i32, i32, ptr, %struct.lua_TValue, %struct.lua_TValue, ptr, ptr, ptr, i64 }
%struct.global_State = type { %struct.stringtable, ptr, ptr, i8, i8, i32, ptr, ptr, ptr, ptr, ptr, ptr, %struct.Mbuffer, i64, i64, i64, i64, i32, i32, ptr, %struct.lua_TValue, ptr, %struct.UpVal, [9 x ptr], [17 x ptr] }
%struct.stringtable = type { ptr, i32, i32 }
%struct.Mbuffer = type { ptr, i64, i64 }
%struct.UpVal = type { ptr, i8, i8, ptr, %union.anon }
%union.anon = type { %struct.lua_TValue }

@.str.1 = private unnamed_addr constant [6 x i8] c"index\00", align 1
@.str.2 = private unnamed_addr constant [17 x i8] c"loop in gettable\00", align 1

; Function Attrs: nounwind uwtable
define internal void @callTMres(ptr noundef %0, ptr noundef %1, ptr noundef %2, ptr noundef %3, ptr noundef %4) #0 {
  %6 = alloca ptr, align 8
  %7 = alloca ptr, align 8
  %8 = alloca ptr, align 8
  %9 = alloca ptr, align 8
  %10 = alloca ptr, align 8
  %11 = alloca i64, align 8
  %12 = alloca ptr, align 8
  %13 = alloca ptr, align 8
  %14 = alloca ptr, align 8
  %15 = alloca ptr, align 8
  %16 = alloca ptr, align 8
  %17 = alloca ptr, align 8
  %18 = alloca ptr, align 8
  %19 = alloca ptr, align 8
  store ptr %0, ptr %6, align 8, !tbaa !15
  store ptr %1, ptr %7, align 8, !tbaa !4
  store ptr %2, ptr %8, align 8, !tbaa !4
  store ptr %3, ptr %9, align 8, !tbaa !4
  store ptr %4, ptr %10, align 8, !tbaa !4
  call void @llvm.lifetime.start.p0(i64 8, ptr %11) #7
  %20 = load ptr, ptr %7, align 8, !tbaa !4
  %21 = load ptr, ptr %6, align 8, !tbaa !15
  %22 = getelementptr inbounds nuw %struct.lua_State, ptr %21, i32 0, i32 10
  %23 = load ptr, ptr %22, align 8, !tbaa !38
  %24 = ptrtoint ptr %20 to i64
  %25 = ptrtoint ptr %23 to i64
  %26 = sub i64 %24, %25
  store i64 %26, ptr %11, align 8, !tbaa !39
  call void @llvm.lifetime.start.p0(i64 8, ptr %12) #7
  %27 = load ptr, ptr %8, align 8, !tbaa !4
  store ptr %27, ptr %12, align 8, !tbaa !4
  call void @llvm.lifetime.start.p0(i64 8, ptr %13) #7
  %28 = load ptr, ptr %6, align 8, !tbaa !15
  %29 = getelementptr inbounds nuw %struct.lua_State, ptr %28, i32 0, i32 4
  %30 = load ptr, ptr %29, align 8, !tbaa !40
  store ptr %30, ptr %13, align 8, !tbaa !4
  %31 = load ptr, ptr %13, align 8, !tbaa !4
  %32 = getelementptr inbounds nuw %struct.lua_TValue, ptr %31, i32 0, i32 0
  %33 = load ptr, ptr %12, align 8, !tbaa !4
  %34 = getelementptr inbounds nuw %struct.lua_TValue, ptr %33, i32 0, i32 0
  call void @llvm.memcpy.p0.p0.i64(ptr align 8 %32, ptr align 8 %34, i64 8, i1 false), !tbaa.struct !35
  %35 = load ptr, ptr %12, align 8, !tbaa !4
  %36 = getelementptr inbounds nuw %struct.lua_TValue, ptr %35, i32 0, i32 1
  %37 = load i32, ptr %36, align 8, !tbaa !9
  %38 = load ptr, ptr %13, align 8, !tbaa !4
  %39 = getelementptr inbounds nuw %struct.lua_TValue, ptr %38, i32 0, i32 1
  store i32 %37, ptr %39, align 8, !tbaa !9
  call void @llvm.lifetime.end.p0(i64 8, ptr %13) #7
  call void @llvm.lifetime.end.p0(i64 8, ptr %12) #7
  call void @llvm.lifetime.start.p0(i64 8, ptr %14) #7
  %40 = load ptr, ptr %9, align 8, !tbaa !4
  store ptr %40, ptr %14, align 8, !tbaa !4
  call void @llvm.lifetime.start.p0(i64 8, ptr %15) #7
  %41 = load ptr, ptr %6, align 8, !tbaa !15
  %42 = getelementptr inbounds nuw %struct.lua_State, ptr %41, i32 0, i32 4
  %43 = load ptr, ptr %42, align 8, !tbaa !40
  %44 = getelementptr inbounds %struct.lua_TValue, ptr %43, i64 1
  store ptr %44, ptr %15, align 8, !tbaa !4
  %45 = load ptr, ptr %15, align 8, !tbaa !4
  %46 = getelementptr inbounds nuw %struct.lua_TValue, ptr %45, i32 0, i32 0
  %47 = load ptr, ptr %14, align 8, !tbaa !4
  %48 = getelementptr inbounds nuw %struct.lua_TValue, ptr %47, i32 0, i32 0
  call void @llvm.memcpy.p0.p0.i64(ptr align 8 %46, ptr align 8 %48, i64 8, i1 false), !tbaa.struct !35
  %49 = load ptr, ptr %14, align 8, !tbaa !4
  %50 = getelementptr inbounds nuw %struct.lua_TValue, ptr %49, i32 0, i32 1
  %51 = load i32, ptr %50, align 8, !tbaa !9
  %52 = load ptr, ptr %15, align 8, !tbaa !4
  %53 = getelementptr inbounds nuw %struct.lua_TValue, ptr %52, i32 0, i32 1
  store i32 %51, ptr %53, align 8, !tbaa !9
  call void @llvm.lifetime.end.p0(i64 8, ptr %15) #7
  call void @llvm.lifetime.end.p0(i64 8, ptr %14) #7
  call void @llvm.lifetime.start.p0(i64 8, ptr %16) #7
  %54 = load ptr, ptr %10, align 8, !tbaa !4
  store ptr %54, ptr %16, align 8, !tbaa !4
  call void @llvm.lifetime.start.p0(i64 8, ptr %17) #7
  %55 = load ptr, ptr %6, align 8, !tbaa !15
  %56 = getelementptr inbounds nuw %struct.lua_State, ptr %55, i32 0, i32 4
  %57 = load ptr, ptr %56, align 8, !tbaa !40
  %58 = getelementptr inbounds %struct.lua_TValue, ptr %57, i64 2
  store ptr %58, ptr %17, align 8, !tbaa !4
  %59 = load ptr, ptr %17, align 8, !tbaa !4
  %60 = getelementptr inbounds nuw %struct.lua_TValue, ptr %59, i32 0, i32 0
  %61 = load ptr, ptr %16, align 8, !tbaa !4
  %62 = getelementptr inbounds nuw %struct.lua_TValue, ptr %61, i32 0, i32 0
  call void @llvm.memcpy.p0.p0.i64(ptr align 8 %60, ptr align 8 %62, i64 8, i1 false), !tbaa.struct !35
  %63 = load ptr, ptr %16, align 8, !tbaa !4
  %64 = getelementptr inbounds nuw %struct.lua_TValue, ptr %63, i32 0, i32 1
  %65 = load i32, ptr %64, align 8, !tbaa !9
  %66 = load ptr, ptr %17, align 8, !tbaa !4
  %67 = getelementptr inbounds nuw %struct.lua_TValue, ptr %66, i32 0, i32 1
  store i32 %65, ptr %67, align 8, !tbaa !9
  call void @llvm.lifetime.end.p0(i64 8, ptr %17) #7
  call void @llvm.lifetime.end.p0(i64 8, ptr %16) #7
  %68 = load ptr, ptr %6, align 8, !tbaa !15
  %69 = getelementptr inbounds nuw %struct.lua_State, ptr %68, i32 0, i32 9
  %70 = load ptr, ptr %69, align 8, !tbaa !41
  %71 = load ptr, ptr %6, align 8, !tbaa !15
  %72 = getelementptr inbounds nuw %struct.lua_State, ptr %71, i32 0, i32 4
  %73 = load ptr, ptr %72, align 8, !tbaa !40
  %74 = ptrtoint ptr %70 to i64
  %75 = ptrtoint ptr %73 to i64
  %76 = sub i64 %74, %75
  %77 = icmp sle i64 %76, 48
  br i1 %77, label %78, label %80

78:                                               ; preds = %5
  %79 = load ptr, ptr %6, align 8, !tbaa !15
  call void @luaD_growstack(ptr noundef %79, i32 noundef 3)
  br label %81

80:                                               ; preds = %5
  br label %81

81:                                               ; preds = %80, %78
  %82 = load ptr, ptr %6, align 8, !tbaa !15
  %83 = getelementptr inbounds nuw %struct.lua_State, ptr %82, i32 0, i32 4
  %84 = load ptr, ptr %83, align 8, !tbaa !40
  %85 = getelementptr inbounds %struct.lua_TValue, ptr %84, i64 3
  store ptr %85, ptr %83, align 8, !tbaa !40
  %86 = load ptr, ptr %6, align 8, !tbaa !15
  %87 = load ptr, ptr %6, align 8, !tbaa !15
  %88 = getelementptr inbounds nuw %struct.lua_State, ptr %87, i32 0, i32 4
  %89 = load ptr, ptr %88, align 8, !tbaa !40
  %90 = getelementptr inbounds %struct.lua_TValue, ptr %89, i64 -3
  call void @luaD_call(ptr noundef %86, ptr noundef %90, i32 noundef 1)
  %91 = load ptr, ptr %6, align 8, !tbaa !15
  %92 = getelementptr inbounds nuw %struct.lua_State, ptr %91, i32 0, i32 10
  %93 = load ptr, ptr %92, align 8, !tbaa !38
  %94 = load i64, ptr %11, align 8, !tbaa !39
  %95 = getelementptr inbounds i8, ptr %93, i64 %94
  store ptr %95, ptr %7, align 8, !tbaa !4
  %96 = load ptr, ptr %6, align 8, !tbaa !15
  %97 = getelementptr inbounds nuw %struct.lua_State, ptr %96, i32 0, i32 4
  %98 = load ptr, ptr %97, align 8, !tbaa !40
  %99 = getelementptr inbounds %struct.lua_TValue, ptr %98, i32 -1
  store ptr %99, ptr %97, align 8, !tbaa !40
  call void @llvm.lifetime.start.p0(i64 8, ptr %18) #7
  %100 = load ptr, ptr %6, align 8, !tbaa !15
  %101 = getelementptr inbounds nuw %struct.lua_State, ptr %100, i32 0, i32 4
  %102 = load ptr, ptr %101, align 8, !tbaa !40
  store ptr %102, ptr %18, align 8, !tbaa !4
  call void @llvm.lifetime.start.p0(i64 8, ptr %19) #7
  %103 = load ptr, ptr %7, align 8, !tbaa !4
  store ptr %103, ptr %19, align 8, !tbaa !4
  %104 = load ptr, ptr %19, align 8, !tbaa !4
  %105 = getelementptr inbounds nuw %struct.lua_TValue, ptr %104, i32 0, i32 0
  %106 = load ptr, ptr %18, align 8, !tbaa !4
  %107 = getelementptr inbounds nuw %struct.lua_TValue, ptr %106, i32 0, i32 0
  call void @llvm.memcpy.p0.p0.i64(ptr align 8 %105, ptr align 8 %107, i64 8, i1 false), !tbaa.struct !35
  %108 = load ptr, ptr %18, align 8, !tbaa !4
  %109 = getelementptr inbounds nuw %struct.lua_TValue, ptr %108, i32 0, i32 1
  %110 = load i32, ptr %109, align 8, !tbaa !9
  %111 = load ptr, ptr %19, align 8, !tbaa !4
  %112 = getelementptr inbounds nuw %struct.lua_TValue, ptr %111, i32 0, i32 1
  store i32 %110, ptr %112, align 8, !tbaa !9
  call void @llvm.lifetime.end.p0(i64 8, ptr %19) #7
  call void @llvm.lifetime.end.p0(i64 8, ptr %18) #7
  call void @llvm.lifetime.end.p0(i64 8, ptr %11) #7
  ret void
}

; Function Attrs: nounwind uwtable
define hidden void @luaV_gettable(ptr noundef %0, ptr noundef %1, ptr noundef %2, ptr noundef %3) #0 {
  %5 = alloca ptr, align 8
  %6 = alloca ptr, align 8
  %7 = alloca ptr, align 8
  %8 = alloca ptr, align 8
  %9 = alloca i32, align 4
  %10 = alloca ptr, align 8
  %11 = alloca ptr, align 8
  %12 = alloca ptr, align 8
  %13 = alloca ptr, align 8
  %14 = alloca ptr, align 8
  %15 = alloca i32, align 4
  store ptr %0, ptr %5, align 8, !tbaa !15
  store ptr %1, ptr %6, align 8, !tbaa !4
  store ptr %2, ptr %7, align 8, !tbaa !4
  store ptr %3, ptr %8, align 8, !tbaa !4
  call void @llvm.lifetime.start.p0(i64 4, ptr %9) #7
  store i32 0, ptr %9, align 4, !tbaa !17
  br label %16

16:                                               ; preds = %110, %4
  %17 = load i32, ptr %9, align 4, !tbaa !17
  %18 = icmp slt i32 %17, 100
  br i1 %18, label %19, label %113

19:                                               ; preds = %16
  call void @llvm.lifetime.start.p0(i64 8, ptr %10) #7
  %20 = load ptr, ptr %6, align 8, !tbaa !4
  %21 = getelementptr inbounds nuw %struct.lua_TValue, ptr %20, i32 0, i32 1
  %22 = load i32, ptr %21, align 8, !tbaa !9
  %23 = icmp eq i32 %22, 5
  br i1 %23, label %24, label %83

24:                                               ; preds = %19
  call void @llvm.lifetime.start.p0(i64 8, ptr %11) #7
  %25 = load ptr, ptr %6, align 8, !tbaa !4
  %26 = getelementptr inbounds nuw %struct.lua_TValue, ptr %25, i32 0, i32 0
  %27 = load ptr, ptr %26, align 8, !tbaa !12
  store ptr %27, ptr %11, align 8, !tbaa !18
  call void @llvm.lifetime.start.p0(i64 8, ptr %12) #7
  %28 = load ptr, ptr %11, align 8, !tbaa !18
  %29 = load ptr, ptr %7, align 8, !tbaa !4
  %30 = call ptr @luaH_get(ptr noundef %28, ptr noundef %29)
  store ptr %30, ptr %12, align 8, !tbaa !4
  %31 = load ptr, ptr %12, align 8, !tbaa !4
  %32 = getelementptr inbounds nuw %struct.lua_TValue, ptr %31, i32 0, i32 1
  %33 = load i32, ptr %32, align 8, !tbaa !9
  %34 = icmp eq i32 %33, 0
  br i1 %34, label %35, label %67

35:                                               ; preds = %24
  %36 = load ptr, ptr %11, align 8, !tbaa !18
  %37 = getelementptr inbounds nuw %struct.Table, ptr %36, i32 0, i32 6
  %38 = load ptr, ptr %37, align 8, !tbaa !20
  %39 = icmp eq ptr %38, null
  br i1 %39, label %40, label %41

40:                                               ; preds = %35
  br label %64

41:                                               ; preds = %35
  %42 = load ptr, ptr %11, align 8, !tbaa !18
  %43 = getelementptr inbounds nuw %struct.Table, ptr %42, i32 0, i32 6
  %44 = load ptr, ptr %43, align 8, !tbaa !20
  %45 = getelementptr inbounds nuw %struct.Table, ptr %44, i32 0, i32 3
  %46 = load i8, ptr %45, align 2, !tbaa !24
  %47 = zext i8 %46 to i32
  %48 = and i32 %47, 1
  %49 = icmp ne i32 %48, 0
  br i1 %49, label %50, label %51

50:                                               ; preds = %41
  br label %62

51:                                               ; preds = %41
  %52 = load ptr, ptr %11, align 8, !tbaa !18
  %53 = getelementptr inbounds nuw %struct.Table, ptr %52, i32 0, i32 6
  %54 = load ptr, ptr %53, align 8, !tbaa !20
  %55 = load ptr, ptr %5, align 8, !tbaa !15
  %56 = getelementptr inbounds nuw %struct.lua_State, ptr %55, i32 0, i32 6
  %57 = load ptr, ptr %56, align 8, !tbaa !25
  %58 = getelementptr inbounds nuw %struct.global_State, ptr %57, i32 0, i32 24
  %59 = getelementptr inbounds [17 x ptr], ptr %58, i64 0, i64 0
  %60 = load ptr, ptr %59, align 8, !tbaa !33
  %61 = call ptr @luaT_gettm(ptr noundef %54, i32 noundef 0, ptr noundef %60)
  br label %62

62:                                               ; preds = %51, %50
  %63 = phi ptr [ null, %50 ], [ %61, %51 ]
  br label %64

64:                                               ; preds = %62, %40
  %65 = phi ptr [ null, %40 ], [ %63, %62 ]
  store ptr %65, ptr %10, align 8, !tbaa !4
  %66 = icmp eq ptr %65, null
  br i1 %66, label %67, label %79

67:                                               ; preds = %64, %24
  call void @llvm.lifetime.start.p0(i64 8, ptr %13) #7
  %68 = load ptr, ptr %12, align 8, !tbaa !4
  store ptr %68, ptr %13, align 8, !tbaa !4
  call void @llvm.lifetime.start.p0(i64 8, ptr %14) #7
  %69 = load ptr, ptr %8, align 8, !tbaa !4
  store ptr %69, ptr %14, align 8, !tbaa !4
  %70 = load ptr, ptr %14, align 8, !tbaa !4
  %71 = getelementptr inbounds nuw %struct.lua_TValue, ptr %70, i32 0, i32 0
  %72 = load ptr, ptr %13, align 8, !tbaa !4
  %73 = getelementptr inbounds nuw %struct.lua_TValue, ptr %72, i32 0, i32 0
  call void @llvm.memcpy.p0.p0.i64(ptr align 8 %71, ptr align 8 %73, i64 8, i1 false), !tbaa.struct !35
  %74 = load ptr, ptr %13, align 8, !tbaa !4
  %75 = getelementptr inbounds nuw %struct.lua_TValue, ptr %74, i32 0, i32 1
  %76 = load i32, ptr %75, align 8, !tbaa !9
  %77 = load ptr, ptr %14, align 8, !tbaa !4
  %78 = getelementptr inbounds nuw %struct.lua_TValue, ptr %77, i32 0, i32 1
  store i32 %76, ptr %78, align 8, !tbaa !9
  call void @llvm.lifetime.end.p0(i64 8, ptr %14) #7
  call void @llvm.lifetime.end.p0(i64 8, ptr %13) #7
  store i32 1, ptr %15, align 4
  br label %80

79:                                               ; preds = %64
  store i32 0, ptr %15, align 4
  br label %80

80:                                               ; preds = %79, %67
  call void @llvm.lifetime.end.p0(i64 8, ptr %12) #7
  call void @llvm.lifetime.end.p0(i64 8, ptr %11) #7
  %81 = load i32, ptr %15, align 4
  switch i32 %81, label %107 [
    i32 0, label %82
  ]

82:                                               ; preds = %80
  br label %94

83:                                               ; preds = %19
  %84 = load ptr, ptr %5, align 8, !tbaa !15
  %85 = load ptr, ptr %6, align 8, !tbaa !4
  %86 = call ptr @luaT_gettmbyobj(ptr noundef %84, ptr noundef %85, i32 noundef 0)
  store ptr %86, ptr %10, align 8, !tbaa !4
  %87 = getelementptr inbounds nuw %struct.lua_TValue, ptr %86, i32 0, i32 1
  %88 = load i32, ptr %87, align 8, !tbaa !9
  %89 = icmp eq i32 %88, 0
  br i1 %89, label %90, label %93

90:                                               ; preds = %83
  %91 = load ptr, ptr %5, align 8, !tbaa !15
  %92 = load ptr, ptr %6, align 8, !tbaa !4
  call void @luaG_typeerror(ptr noundef %91, ptr noundef %92, ptr noundef @.str.1)
  br label %93

93:                                               ; preds = %90, %83
  br label %94

94:                                               ; preds = %93, %82
  %95 = load ptr, ptr %10, align 8, !tbaa !4
  %96 = getelementptr inbounds nuw %struct.lua_TValue, ptr %95, i32 0, i32 1
  %97 = load i32, ptr %96, align 8, !tbaa !9
  %98 = icmp eq i32 %97, 6
  br i1 %98, label %99, label %105

99:                                               ; preds = %94
  %100 = load ptr, ptr %5, align 8, !tbaa !15
  %101 = load ptr, ptr %8, align 8, !tbaa !4
  %102 = load ptr, ptr %10, align 8, !tbaa !4
  %103 = load ptr, ptr %6, align 8, !tbaa !4
  %104 = load ptr, ptr %7, align 8, !tbaa !4
  call void @callTMres(ptr noundef %100, ptr noundef %101, ptr noundef %102, ptr noundef %103, ptr noundef %104)
  store i32 1, ptr %15, align 4
  br label %107

105:                                              ; preds = %94
  %106 = load ptr, ptr %10, align 8, !tbaa !4
  store ptr %106, ptr %6, align 8, !tbaa !4
  store i32 0, ptr %15, align 4
  br label %107

107:                                              ; preds = %105, %99, %80
  call void @llvm.lifetime.end.p0(i64 8, ptr %10) #7
  %108 = load i32, ptr %15, align 4
  switch i32 %108, label %115 [
    i32 0, label %109
  ]

109:                                              ; preds = %107
  br label %110

110:                                              ; preds = %109
  %111 = load i32, ptr %9, align 4, !tbaa !17
  %112 = add nsw i32 %111, 1
  store i32 %112, ptr %9, align 4, !tbaa !17
  br label %16, !llvm.loop !36

113:                                              ; preds = %16
  %114 = load ptr, ptr %5, align 8, !tbaa !15
  call void (ptr, ptr, ...) @luaG_runerror(ptr noundef %114, ptr noundef @.str.2)
  store i32 0, ptr %15, align 4
  br label %115

115:                                              ; preds = %113, %107
  call void @llvm.lifetime.end.p0(i64 4, ptr %9) #7
  %116 = load i32, ptr %15, align 4
  switch i32 %116, label %118 [
    i32 0, label %117
    i32 1, label %117
  ]

117:                                              ; preds = %115, %115
  ret void

118:                                              ; preds = %115
  unreachable
}