; Function Attrs: nounwind uwtable
define hidden void @luaV_gettable(ptr noundef %0, ptr noundef %1, ptr noundef %2, ptr noundef %3) local_unnamed_addr #0 {
  %5 = getelementptr inbounds nuw i8, ptr %0, i64 32
  %.phi.trans.insert = getelementptr inbounds nuw i8, ptr %1, i64 8
  %.pre = load i32, ptr %.phi.trans.insert, align 8, !tbaa !4
  br label %8

6:                                                ; preds = %.thread39
  %7 = add nuw nsw i32 %.03355, 1
  %exitcond.not = icmp eq i32 %7, 100
  br i1 %exitcond.not, label %86, label %8, !llvm.loop !12

8:                                                ; preds = %4, %6
  %9 = phi i32 [ %.pre, %4 ], [ %42, %6 ]
  %.03156 = phi ptr [ %1, %4 ], [ %.4, %6 ]
  %.03355 = phi i32 [ 0, %4 ], [ %7, %6 ]
  %10 = icmp eq i32 %9, 5
  br i1 %10, label %11, label %35

11:                                               ; preds = %8
  %12 = load ptr, ptr %.03156, align 8, !tbaa !9
  %13 = tail call ptr @luaH_get(ptr noundef %12, ptr noundef %2) #9
  %14 = getelementptr inbounds nuw i8, ptr %13, i64 8
  %15 = load i32, ptr %14, align 8, !tbaa !4
  %16 = icmp eq i32 %15, 0
  br i1 %16, label %17, label %.thread

17:                                               ; preds = %11
  %18 = getelementptr inbounds nuw i8, ptr %12, i64 24
  %19 = load ptr, ptr %18, align 8, !tbaa !14
  %20 = icmp eq ptr %19, null
  br i1 %20, label %.thread, label %21

21:                                               ; preds = %17
  %22 = getelementptr inbounds nuw i8, ptr %19, i64 10
  %23 = load i8, ptr %22, align 2, !tbaa !21
  %24 = and i8 %23, 1
  %.not = icmp eq i8 %24, 0
  br i1 %.not, label %25, label %.thread

25:                                               ; preds = %21
  %26 = load ptr, ptr %5, align 8, !tbaa !22
  %27 = getelementptr inbounds nuw i8, ptr %26, i64 296
  %28 = load ptr, ptr %27, align 8, !tbaa !30
  %29 = tail call ptr @luaT_gettm(ptr noundef nonnull %19, i32 noundef 0, ptr noundef %28) #9
  %30 = icmp eq ptr %29, null
  br i1 %30, label %.thread, label %.thread39

.thread:                                          ; preds = %21, %17, %11, %25
  %31 = getelementptr inbounds nuw i8, ptr %13, i64 8
  %32 = load i64, ptr %13, align 8, !tbaa !9
  store i64 %32, ptr %3, align 8, !tbaa !9
  %33 = load i32, ptr %31, align 8, !tbaa !4
  %34 = getelementptr inbounds nuw i8, ptr %3, i64 8
  store i32 %33, ptr %34, align 8, !tbaa !4
  br label %.thread43

35:                                               ; preds = %8
  %36 = tail call ptr @luaT_gettmbyobj(ptr noundef %0, ptr noundef nonnull %.03156, i32 noundef 0) #9
  %37 = getelementptr inbounds nuw i8, ptr %36, i64 8
  %38 = load i32, ptr %37, align 8, !tbaa !4
  %39 = icmp eq i32 %38, 0
  br i1 %39, label %40, label %.thread39

40:                                               ; preds = %35
  tail call void @luaG_typeerror(ptr noundef %0, ptr noundef nonnull %.03156, ptr noundef nonnull @.str.1) #9
  br label %.thread39

.thread39:                                        ; preds = %25, %35, %40
  %.4 = phi ptr [ %36, %40 ], [ %36, %35 ], [ %29, %25 ]
  %41 = getelementptr inbounds nuw i8, ptr %.4, i64 8
  %42 = load i32, ptr %41, align 8, !tbaa !4
  %43 = icmp eq i32 %42, 6
  br i1 %43, label %44, label %6

44:                                               ; preds = %.thread39
  %45 = getelementptr inbounds nuw i8, ptr %.03156, i64 8
  %46 = getelementptr inbounds nuw i8, ptr %.4, i64 8
  %47 = getelementptr inbounds nuw i8, ptr %0, i64 64
  %48 = load ptr, ptr %47, align 8, !tbaa !32
  %49 = getelementptr inbounds nuw i8, ptr %0, i64 16
  %50 = load ptr, ptr %49, align 8, !tbaa !33
  %51 = load i64, ptr %.4, align 8, !tbaa !9
  store i64 %51, ptr %50, align 8, !tbaa !9
  %52 = load i32, ptr %46, align 8, !tbaa !4
  %53 = getelementptr inbounds nuw i8, ptr %50, i64 8
  store i32 %52, ptr %53, align 8, !tbaa !4
  %54 = load ptr, ptr %49, align 8, !tbaa !33
  %55 = getelementptr inbounds nuw i8, ptr %54, i64 16
  %56 = load i64, ptr %.03156, align 8, !tbaa !9
  store i64 %56, ptr %55, align 8, !tbaa !9
  %57 = load i32, ptr %45, align 8, !tbaa !4
  %58 = getelementptr inbounds nuw i8, ptr %54, i64 24
  store i32 %57, ptr %58, align 8, !tbaa !4
  %59 = load ptr, ptr %49, align 8, !tbaa !33
  %60 = getelementptr inbounds nuw i8, ptr %59, i64 32
  %61 = load i64, ptr %2, align 8, !tbaa !9
  store i64 %61, ptr %60, align 8, !tbaa !9
  %62 = getelementptr inbounds nuw i8, ptr %2, i64 8
  %63 = load i32, ptr %62, align 8, !tbaa !4
  %64 = getelementptr inbounds nuw i8, ptr %59, i64 40
  store i32 %63, ptr %64, align 8, !tbaa !4
  %65 = getelementptr inbounds nuw i8, ptr %0, i64 56
  %66 = load ptr, ptr %65, align 8, !tbaa !34
  %67 = load ptr, ptr %49, align 8, !tbaa !33
  %68 = ptrtoint ptr %66 to i64
  %69 = ptrtoint ptr %67 to i64
  %70 = sub i64 %68, %69
  %71 = icmp slt i64 %70, 49
  br i1 %71, label %72, label %callTMres.exit

72:                                               ; preds = %44
  tail call void @luaD_growstack(ptr noundef nonnull %0, i32 noundef 3) #9
  %.pre.i = load ptr, ptr %49, align 8, !tbaa !33
  br label %callTMres.exit

callTMres.exit:                                   ; preds = %44, %72
  %73 = phi ptr [ %67, %44 ], [ %.pre.i, %72 ]
  %74 = ptrtoint ptr %3 to i64
  %75 = ptrtoint ptr %48 to i64
  %76 = sub i64 %74, %75
  %77 = getelementptr inbounds nuw i8, ptr %73, i64 48
  store ptr %77, ptr %49, align 8, !tbaa !33
  tail call void @luaD_call(ptr noundef nonnull %0, ptr noundef %73, i32 noundef 1) #9
  %78 = load ptr, ptr %47, align 8, !tbaa !32
  %79 = getelementptr inbounds i8, ptr %78, i64 %76
  %80 = load ptr, ptr %49, align 8, !tbaa !33
  %81 = getelementptr inbounds i8, ptr %80, i64 -16
  store ptr %81, ptr %49, align 8, !tbaa !33
  %82 = load i64, ptr %81, align 8, !tbaa !9
  store i64 %82, ptr %79, align 8, !tbaa !9
  %83 = getelementptr inbounds i8, ptr %80, i64 -8
  %84 = load i32, ptr %83, align 8, !tbaa !4
  %85 = getelementptr inbounds nuw i8, ptr %79, i64 8
  store i32 %84, ptr %85, align 8, !tbaa !4
  br label %.thread43

86:                                               ; preds = %6
  tail call void (ptr, ptr, ...) @luaG_runerror(ptr noundef %0, ptr noundef nonnull @.str.2) #9
  br label %.thread43

.thread43:                                        ; preds = %.thread, %callTMres.exit, %86
  ret void
}